; ModuleID = '4/1805.c'
source_filename = "4/1805.c"
target datalayout = "e-m:e-p270:32:32-p271:32:32-p272:64:64-i64:64-f80:128-n8:16:32:64-S128"
target triple = "x86_64-pc-linux-gnu"

@.str = private unnamed_addr constant [5 x i8] c"%d%d\00", align 1
@.str.1 = private unnamed_addr constant [3 x i8] c"%d\00", align 1
@.str.2 = private unnamed_addr constant [4 x i8] c"%d\0A\00", align 1

; Function Attrs: noinline nounwind uwtable
define dso_local void @main() #0 {
  %1 = alloca i32, align 4
  %2 = alloca i32, align 4
  %3 = alloca i32, align 4
  %4 = alloca i32, align 4
  %5 = alloca i32, align 4
  %6 = alloca [100 x i32]*, align 8
  %7 = call noalias i8* @calloc(i64 100, i64 400) #3
  %8 = bitcast i8* %7 to [100 x i32]*
  store [100 x i32]* %8, [100 x i32]** %6, align 8
  %9 = call i32 (i8*, ...) @__isoc99_scanf(i8* getelementptr inbounds ([5 x i8], [5 x i8]* @.str, i64 0, i64 0), i32* %1, i32* %2)
  store i32 0, i32* %3, align 4
  br label %10

10:                                               ; preds = %33, %0
  %11 = load i32, i32* %3, align 4
  %12 = load i32, i32* %1, align 4
  %13 = icmp slt i32 %11, %12
  br i1 %13, label %14, label %36

14:                                               ; preds = %10
  store i32 0, i32* %4, align 4
  br label %15

15:                                               ; preds = %29, %14
  %16 = load i32, i32* %4, align 4
  %17 = load i32, i32* %2, align 4
  %18 = icmp slt i32 %16, %17
  br i1 %18, label %19, label %32

19:                                               ; preds = %15
  %20 = load [100 x i32]*, [100 x i32]** %6, align 8
  %21 = load i32, i32* %3, align 4
  %22 = sext i32 %21 to i64
  %23 = getelementptr inbounds [100 x i32], [100 x i32]* %20, i64 %22
  %24 = getelementptr inbounds [100 x i32], [100 x i32]* %23, i64 0, i64 0
  %25 = load i32, i32* %4, align 4
  %26 = sext i32 %25 to i64
  %27 = getelementptr inbounds i32, i32* %24, i64 %26
  %28 = call i32 (i8*, ...) @__isoc99_scanf(i8* getelementptr inbounds ([3 x i8], [3 x i8]* @.str.1, i64 0, i64 0), i32* %27)
  br label %29

29:                                               ; preds = %19
  %30 = load i32, i32* %4, align 4
  %31 = add nsw i32 %30, 1
  store i32 %31, i32* %4, align 4
  br label %15

32:                                               ; preds = %15
  br label %33

33:                                               ; preds = %32
  %34 = load i32, i32* %3, align 4
  %35 = add nsw i32 %34, 1
  store i32 %35, i32* %3, align 4
  br label %10

36:                                               ; preds = %10
  store i32 0, i32* %5, align 4
  br label %37

37:                                               ; preds = %73, %36
  %38 = load i32, i32* %5, align 4
  %39 = load i32, i32* %2, align 4
  %40 = icmp slt i32 %38, %39
  br i1 %40, label %41, label %76

41:                                               ; preds = %37
  store i32 0, i32* %3, align 4
  br label %42

42:                                               ; preds = %69, %41
  %43 = load i32, i32* %5, align 4
  %44 = load i32, i32* %3, align 4
  %45 = sub nsw i32 %43, %44
  %46 = icmp sge i32 %45, 0
  br i1 %46, label %47, label %52

47:                                               ; preds = %42
  %48 = load i32, i32* %3, align 4
  %49 = load i32, i32* %1, align 4
  %50 = sub nsw i32 %49, 1
  %51 = icmp sle i32 %48, %50
  br label %52

52:                                               ; preds = %47, %42
  %53 = phi i1 [ false, %42 ], [ %51, %47 ]
  br i1 %53, label %54, label %72

54:                                               ; preds = %52
  %55 = load [100 x i32]*, [100 x i32]** %6, align 8
  %56 = load i32, i32* %3, align 4
  %57 = sext i32 %56 to i64
  %58 = getelementptr inbounds [100 x i32], [100 x i32]* %55, i64 %57
  %59 = getelementptr inbounds [100 x i32], [100 x i32]* %58, i64 0, i64 0
  %60 = load i32, i32* %5, align 4
  %61 = sext i32 %60 to i64
  %62 = getelementptr inbounds i32, i32* %59, i64 %61
  %63 = load i32, i32* %3, align 4
  %64 = sext i32 %63 to i64
  %65 = sub i64 0, %64
  %66 = getelementptr inbounds i32, i32* %62, i64 %65
  %67 = load i32, i32* %66, align 4
  %68 = call i32 (i8*, ...) @printf(i8* getelementptr inbounds ([4 x i8], [4 x i8]* @.str.2, i64 0, i64 0), i32 %67)
  br label %69

69:                                               ; preds = %54
  %70 = load i32, i32* %3, align 4
  %71 = add nsw i32 %70, 1
  store i32 %71, i32* %3, align 4
  br label %42

72:                                               ; preds = %52
  br label %73

73:                                               ; preds = %72
  %74 = load i32, i32* %5, align 4
  %75 = add nsw i32 %74, 1
  store i32 %75, i32* %5, align 4
  br label %37

76:                                               ; preds = %37
  store i32 1, i32* %5, align 4
  br label %77

77:                                               ; preds = %120, %76
  %78 = load i32, i32* %5, align 4
  %79 = load i32, i32* %1, align 4
  %80 = icmp slt i32 %78, %79
  br i1 %80, label %81, label %123

81:                                               ; preds = %77
  store i32 0, i32* %3, align 4
  br label %82

82:                                               ; preds = %116, %81
  %83 = load i32, i32* %5, align 4
  %84 = load i32, i32* %3, align 4
  %85 = add nsw i32 %83, %84
  %86 = load i32, i32* %1, align 4
  %87 = sub nsw i32 %86, 1
  %88 = icmp sle i32 %85, %87
  br i1 %88, label %89, label %95

89:                                               ; preds = %82
  %90 = load i32, i32* %2, align 4
  %91 = sub nsw i32 %90, 1
  %92 = load i32, i32* %3, align 4
  %93 = sub nsw i32 %91, %92
  %94 = icmp sge i32 %93, 0
  br label %95

95:                                               ; preds = %89, %82
  %96 = phi i1 [ false, %82 ], [ %94, %89 ]
  br i1 %96, label %97, label %119

97:                                               ; preds = %95
  %98 = load [100 x i32]*, [100 x i32]** %6, align 8
  %99 = load i32, i32* %5, align 4
  %100 = sext i32 %99 to i64
  %101 = getelementptr inbounds [100 x i32], [100 x i32]* %98, i64 %100
  %102 = load i32, i32* %3, align 4
  %103 = sext i32 %102 to i64
  %104 = getelementptr inbounds [100 x i32], [100 x i32]* %101, i64 %103
  %105 = getelementptr inbounds [100 x i32], [100 x i32]* %104, i64 0, i64 0
  %106 = load i32, i32* %2, align 4
  %107 = sext i32 %106 to i64
  %108 = getelementptr inbounds i32, i32* %105, i64 %107
  %109 = getelementptr inbounds i32, i32* %108, i64 -1
  %110 = load i32, i32* %3, align 4
  %111 = sext i32 %110 to i64
  %112 = sub i64 0, %111
  %113 = getelementptr inbounds i32, i32* %109, i64 %112
  %114 = load i32, i32* %113, align 4
  %115 = call i32 (i8*, ...) @printf(i8* getelementptr inbounds ([4 x i8], [4 x i8]* @.str.2, i64 0, i64 0), i32 %114)
  br label %116

116:                                              ; preds = %97
  %117 = load i32, i32* %3, align 4
  %118 = add nsw i32 %117, 1
  store i32 %118, i32* %3, align 4
  br label %82

119:                                              ; preds = %95
  br label %120

120:                                              ; preds = %119
  %121 = load i32, i32* %5, align 4
  %122 = add nsw i32 %121, 1
  store i32 %122, i32* %5, align 4
  br label %77

123:                                              ; preds = %77
  ret void
}

; Function Attrs: nounwind
declare dso_local noalias i8* @calloc(i64, i64) #1

declare dso_local i32 @__isoc99_scanf(i8*, ...) #2

declare dso_local i32 @printf(i8*, ...) #2


!llvm.module.flags = !{!0}
!llvm.ident = !{!1}

!0 = !{i32 1, !"wchar_size", i32 4}
!1 = !{!"clang version 10.0.0-4ubuntu1 "}
